target datalayout = "e-m:e-p270:32:32-p271:32:32-p272:64:64-i64:64-i128:128-f80:128-n8:16:32:64-S128"
target triple = "x86_64-pc-linux-gnu"

%struct.pollfd = type { i32, i16, i16 }

@.str.7 = private unnamed_addr constant [19 x i8] c"%s: poll error: %m\00", align 1
@__func__.fd_is_writable = private unnamed_addr constant [15 x i8] c"fd_is_writable\00", align 1
@.str.8 = private unnamed_addr constant [27 x i8] c"%s: socket is not writable\00", align 1

; Function Attrs: nounwind uwtable
define dso_local zeroext i1 @fd_is_writable(i32 noundef %0) #0 {
  %2 = alloca i32, align 4
  %3 = alloca i8, align 1
  %4 = alloca [2 x i8], align 1
  %5 = alloca %struct.pollfd, align 4
  store i32 %0, ptr %2, align 4
  call void @llvm.lifetime.start.p0(i64 1, ptr %3) #10
  store i8 1, ptr %3, align 1
  call void @llvm.lifetime.start.p0(i64 2, ptr %4) #10
  call void @llvm.lifetime.start.p0(i64 8, ptr %5) #10
  %6 = load i32, ptr %2, align 4
  %7 = getelementptr inbounds nuw %struct.pollfd, ptr %5, i32 0, i32 0
  store i32 %6, ptr %7, align 4
  %8 = getelementptr inbounds nuw %struct.pollfd, ptr %5, i32 0, i32 1
  store i16 4, ptr %8, align 4
  br label %9

9:                                                ; preds = %21, %1
  br label %10

10:                                               ; preds = %9
  %11 = call i32 @poll(ptr noundef %5, i64 noundef 1, i32 noundef 0)
  %12 = icmp eq i32 %11, -1
  br i1 %12, label %13, label %33

13:                                               ; preds = %10
  %14 = call ptr @__errno_location() #12
  %15 = load i32, ptr %14, align 4
  %16 = icmp eq i32 %15, 4
  br i1 %16, label %21, label %17

17:                                               ; preds = %13
  %18 = call ptr @__errno_location() #12
  %19 = load i32, ptr %18, align 4
  %20 = icmp eq i32 %19, 11
  br i1 %20, label %21, label %22

21:                                               ; preds = %17, %13
  br label %9, !llvm.loop !16

22:                                               ; preds = %17
  br label %23

23:                                               ; preds = %22
  br label %24

24:                                               ; preds = %23
  %25 = call i32 @get_log_level()
  %26 = icmp sge i32 %25, 6
  br i1 %26, label %27, label %28

27:                                               ; preds = %24
  call void (i32, ptr, ...) @log_var(i32 noundef 6, ptr noundef @.str.7, ptr noundef @__func__.fd_is_writable)
  br label %28

28:                                               ; preds = %27, %24
  br label %29

29:                                               ; preds = %28
  br label %30

30:                                               ; preds = %29
  br label %31

31:                                               ; preds = %30
  br label %32

32:                                               ; preds = %31
  store i8 0, ptr %3, align 1
  br label %55

33:                                               ; preds = %10
  %34 = getelementptr inbounds nuw %struct.pollfd, ptr %5, i32 0, i32 2
  %35 = load i16, ptr %34, align 2
  %36 = sext i16 %35 to i32
  %37 = and i32 %36, 16
  %38 = icmp ne i32 %37, 0
  br i1 %38, label %43, label %39

39:                                               ; preds = %33
  %40 = load i32, ptr %2, align 4
  %41 = call i64 @recv(i32 noundef %40, ptr noundef %4, i64 noundef 1, i32 noundef 2)
  %42 = icmp eq i64 %41, 0
  br i1 %42, label %43, label %54

43:                                               ; preds = %39, %33
  br label %44

44:                                               ; preds = %43
  br label %45

45:                                               ; preds = %44
  %46 = call i32 @get_log_level()
  %47 = icmp sge i32 %46, 6
  br i1 %47, label %48, label %49

48:                                               ; preds = %45
  call void (i32, ptr, ...) @log_var(i32 noundef 6, ptr noundef @.str.8, ptr noundef @__func__.fd_is_writable)
  br label %49

49:                                               ; preds = %48, %45
  br label %50

50:                                               ; preds = %49
  br label %51

51:                                               ; preds = %50
  br label %52

52:                                               ; preds = %51
  br label %53

53:                                               ; preds = %52
  store i8 0, ptr %3, align 1
  br label %55

54:                                               ; preds = %39
  br label %55

55:                                               ; preds = %54, %53, %32
  %56 = load i8, ptr %3, align 1, !range !11, !noundef !12
  %57 = trunc i8 %56 to i1
  call void @llvm.lifetime.end.p0(i64 8, ptr %5) #10
  call void @llvm.lifetime.end.p0(i64 2, ptr %4) #10
  call void @llvm.lifetime.end.p0(i64 1, ptr %3) #10
  ret i1 %57
}