; Function Attrs: nounwind uwtable
define dso_local noundef zeroext i1 @fd_is_writable(i32 noundef %0) local_unnamed_addr #0 {
  %2 = alloca [2 x i8], align 1
  %3 = alloca %struct.pollfd, align 4
  call void @llvm.lifetime.start.p0(i64 2, ptr nonnull %2) #10
  call void @llvm.lifetime.start.p0(i64 8, ptr nonnull %3) #10
  store i32 %0, ptr %3, align 4
  %4 = getelementptr inbounds nuw i8, ptr %3, i64 4
  store i16 4, ptr %4, align 4
  %5 = call i32 @poll(ptr noundef nonnull %3, i64 noundef 1, i32 noundef 0) #10
  %6 = icmp eq i32 %5, -1
  br i1 %6, label %.lr.ph, label %._crit_edge

.lr.ph:                                           ; preds = %1
  %7 = tail call ptr @__errno_location() #11
  br label %8

8:                                                ; preds = %.lr.ph, %10
  %9 = load i32, ptr %7, align 4
  switch i32 %9, label %13 [
    i32 4, label %10
    i32 11, label %10
  ]

10:                                               ; preds = %8, %8
  %11 = call i32 @poll(ptr noundef nonnull %3, i64 noundef 1, i32 noundef 0) #10
  %12 = icmp eq i32 %11, -1
  br i1 %12, label %8, label %._crit_edge, !llvm.loop !14

13:                                               ; preds = %8
  %14 = call i32 @get_log_level() #10
  %15 = icmp sgt i32 %14, 5
  br i1 %15, label %.sink.split, label %25

._crit_edge:                                      ; preds = %10, %1
  %16 = getelementptr inbounds nuw i8, ptr %3, i64 6
  %17 = load i16, ptr %16, align 2
  %18 = and i16 %17, 16
  %.not = icmp eq i16 %18, 0
  br i1 %.not, label %19, label %22

19:                                               ; preds = %._crit_edge
  %20 = call i64 @recv(i32 noundef %0, ptr noundef nonnull %2, i64 noundef 1, i32 noundef 2) #10
  %21 = icmp eq i64 %20, 0
  br i1 %21, label %22, label %25

22:                                               ; preds = %19, %._crit_edge
  %23 = call i32 @get_log_level() #10
  %24 = icmp sgt i32 %23, 5
  br i1 %24, label %.sink.split, label %25

.sink.split:                                      ; preds = %22, %13
  %.str.8.sink = phi ptr [ @.str.7, %13 ], [ @.str.8, %22 ]
  call void (i32, ptr, ...) @log_var(i32 noundef 6, ptr noundef nonnull %.str.8.sink, ptr noundef nonnull @__func__.fd_is_writable) #10
  br label %25

25:                                               ; preds = %.sink.split, %22, %13, %19
  %.0 = phi i1 [ true, %19 ], [ false, %13 ], [ false, %22 ], [ false, %.sink.split ]
  call void @llvm.lifetime.end.p0(i64 8, ptr nonnull %3) #10
  call void @llvm.lifetime.end.p0(i64 2, ptr nonnull %2) #10
  ret i1 %.0
}